; Function Attrs: mustprogress nofree norecurse nosync nounwind willreturn memory(argmem: write) uwtable
define dso_local void @quicklistNodeLimit(i32 noundef %0, ptr noundef writeonly captures(none) initializes((0, 8)) %1, ptr noundef writeonly captures(none) initializes((0, 4)) %2) local_unnamed_addr #10 {
  store i64 -1, ptr %1, align 8, !tbaa !5
  store i32 -1, ptr %2, align 4, !tbaa !28
  %4 = icmp sgt i32 %0, -1
  br i1 %4, label %5, label %7

5:                                                ; preds = %3
  %6 = tail call i32 @llvm.umax.i32(i32 %0, i32 1)
  store i32 %6, ptr %2, align 4, !tbaa !28
  br label %11

7:                                                ; preds = %3
  %8 = tail call i32 @llvm.umax.i32(i32 range(i32 -2147483648, 0) %0, i32 -5)
  %narrow.i = xor i32 %8, -1
  %.0.i = zext nneg i32 %narrow.i to i64
  %9 = getelementptr inbounds nuw [5 x i64], ptr @optimization_level, i64 0, i64 %.0.i
  %10 = load i64, ptr %9, align 8, !tbaa !5
  store i64 %10, ptr %1, align 8, !tbaa !5
  br label %11

11:                                               ; preds = %7, %5
  ret void
}